target datalayout = "e-m:e-p270:32:32-p271:32:32-p272:64:64-i64:64-i128:128-f80:128-n8:16:32:64-S128"
target triple = "x86_64-pc-linux-gnu"

%struct._mka_ckn_info = type { %struct._mka_ckn_info_key, ptr }
%struct._mka_ckn_info_key = type { ptr, i32 }

@mka_ckn_uat_data = internal global ptr null, align 8
@num_mka_ckn_uat_data = internal global i32 0, align 4
@ht_mka_ckn = internal global ptr null, align 8

; Function Attrs: null_pointer_is_valid sspstrong uwtable
define internal void @ckn_info_reset_cb() #0 {
  %1 = load ptr, ptr @ht_mka_ckn, align 8
  %2 = icmp ne ptr %1, null
  br i1 %2, label %3, label %5

3:                                                ; preds = %0
  %4 = load ptr, ptr @ht_mka_ckn, align 8
  call void @g_hash_table_destroy(ptr noundef %4)
  store ptr null, ptr @ht_mka_ckn, align 8
  br label %5

5:                                                ; preds = %3, %0
  ret void
}

; Function Attrs: null_pointer_is_valid sspstrong uwtable
define internal void @ckn_info_post_update_cb() #0 {
  %1 = alloca i32, align 4
  call void @llvm.lifetime.start.p0(i64 4, ptr %1) #8
  call void @ckn_info_reset_cb()
  %2 = call ptr @g_hash_table_new(ptr noundef @ckn_key_hash_func, ptr noundef @ckn_key_equal_func)
  store ptr %2, ptr @ht_mka_ckn, align 8
  store i32 0, ptr %1, align 4
  br label %3

3:                                                ; preds = %19, %0
  %4 = load i32, ptr %1, align 4
  %5 = load i32, ptr @num_mka_ckn_uat_data, align 4
  %6 = icmp ult i32 %4, %5
  br i1 %6, label %7, label %22

7:                                                ; preds = %3
  %8 = load ptr, ptr @ht_mka_ckn, align 8
  %9 = load ptr, ptr @mka_ckn_uat_data, align 8
  %10 = load i32, ptr %1, align 4
  %11 = zext i32 %10 to i64
  %12 = getelementptr %struct._mka_ckn_info, ptr %9, i64 %11
  %13 = getelementptr inbounds nuw %struct._mka_ckn_info, ptr %12, i32 0, i32 0
  %14 = load ptr, ptr @mka_ckn_uat_data, align 8
  %15 = load i32, ptr %1, align 4
  %16 = zext i32 %15 to i64
  %17 = getelementptr %struct._mka_ckn_info, ptr %14, i64 %16
  %18 = call i32 @g_hash_table_insert(ptr noundef %8, ptr noundef %13, ptr noundef %17)
  br label %19

19:                                               ; preds = %7
  %20 = load i32, ptr %1, align 4
  %21 = add i32 %20, 1
  store i32 %21, ptr %1, align 4
  br label %3, !llvm.loop !8

22:                                               ; preds = %3
  call void @llvm.lifetime.end.p0(i64 4, ptr %1) #8
  ret void
}