; Function Attrs: null_pointer_is_valid sspstrong uwtable
define internal void @ckn_info_post_update_cb() #0 {
  %1 = load ptr, ptr @ht_mka_ckn, align 8
  %.not.i = icmp eq ptr %1, null
  br i1 %.not.i, label %ckn_info_reset_cb.exit, label %2

2:                                                ; preds = %0
  tail call void @g_hash_table_destroy(ptr noundef nonnull %1)
  store ptr null, ptr @ht_mka_ckn, align 8
  br label %ckn_info_reset_cb.exit

ckn_info_reset_cb.exit:                           ; preds = %0, %2
  %3 = tail call ptr @g_hash_table_new(ptr noundef nonnull @ckn_key_hash_func, ptr noundef nonnull @ckn_key_equal_func)
  store ptr %3, ptr @ht_mka_ckn, align 8
  %4 = load i32, ptr @num_mka_ckn_uat_data, align 4
  %.not = icmp eq i32 %4, 0
  br i1 %.not, label %._crit_edge, label %.lr.ph

.lr.ph:                                           ; preds = %ckn_info_reset_cb.exit, %.lr.ph
  %indvars.iv = phi i64 [ %indvars.iv.next, %.lr.ph ], [ 0, %ckn_info_reset_cb.exit ]
  %5 = load ptr, ptr @ht_mka_ckn, align 8
  %6 = load ptr, ptr @mka_ckn_uat_data, align 8
  %7 = getelementptr %struct._mka_ckn_info, ptr %6, i64 %indvars.iv
  %8 = tail call i32 @g_hash_table_insert(ptr noundef %5, ptr noundef %7, ptr noundef %7)
  %indvars.iv.next = add nuw nsw i64 %indvars.iv, 1
  %9 = load i32, ptr @num_mka_ckn_uat_data, align 4
  %10 = zext i32 %9 to i64
  %11 = icmp samesign ult i64 %indvars.iv.next, %10
  br i1 %11, label %.lr.ph, label %._crit_edge, !llvm.loop !10

._crit_edge:                                      ; preds = %.lr.ph, %ckn_info_reset_cb.exit
  ret void
}